target datalayout = "e-m:e-p270:32:32-p271:32:32-p272:64:64-i64:64-i128:128-f80:128-n8:16:32:64-S128"
target triple = "x86_64-pc-linux-gnu"

%struct.JsonbValue = type { i32, %union.anon }
%union.anon = type { %struct.anon.2 }
%struct.anon.2 = type { i32, ptr, i8 }
%struct.Jsonb = type { i32, %struct.JsonbContainer }
%struct.JsonbContainer = type { i32, [0 x i32] }
%struct.anon.1 = type { i32, ptr }

@.str.50 = private unnamed_addr constant [5 x i8] c"true\00", align 1
@.str.51 = private unnamed_addr constant [6 x i8] c"false\00", align 1

; Function Attrs: inlinehint nounwind uwtable
define internal ptr @DatumGetPointer(i64 noundef %0) #3 {
  %2 = alloca i64, align 8
  store i64 %0, ptr %2, align 8
  %3 = load i64, ptr %2, align 8
  %4 = inttoptr i64 %3 to ptr
  ret ptr %4
}

; Function Attrs: inlinehint nounwind uwtable
define internal i64 @PointerGetDatum(ptr noundef %0) #3 {
  %2 = alloca ptr, align 8
  store ptr %0, ptr %2, align 8
  %3 = load ptr, ptr %2, align 8
  %4 = ptrtoint ptr %3 to i64
  ret i64 %4
}

; Function Attrs: inlinehint nounwind uwtable
define internal ptr @DatumGetCString(i64 noundef %0) #3 {
  %2 = alloca i64, align 8
  store i64 %0, ptr %2, align 8
  %3 = load i64, ptr %2, align 8
  %4 = call ptr @DatumGetPointer(i64 noundef %3)
  ret ptr %4
}

; Function Attrs: inlinehint nounwind uwtable
define internal i64 @NumericGetDatum(ptr noundef %0) #3 {
  %2 = alloca ptr, align 8
  store ptr %0, ptr %2, align 8
  %3 = load ptr, ptr %2, align 8
  %4 = call i64 @PointerGetDatum(ptr noundef %3)
  ret i64 %4
}

; Function Attrs: nounwind uwtable
define dso_local void @iterate_jsonb_values(ptr noundef %0, i32 noundef %1, ptr noundef %2, ptr noundef %3) #0 {
  %5 = alloca ptr, align 8
  %6 = alloca i32, align 4
  %7 = alloca ptr, align 8
  %8 = alloca ptr, align 8
  %9 = alloca ptr, align 8
  %10 = alloca %struct.JsonbValue, align 8
  %11 = alloca i32, align 4
  %12 = alloca ptr, align 8
  store ptr %0, ptr %5, align 8
  store i32 %1, ptr %6, align 4
  store ptr %2, ptr %7, align 8
  store ptr %3, ptr %8, align 8
  call void @llvm.lifetime.start.p0(i64 8, ptr %9) #10
  call void @llvm.lifetime.start.p0(i64 32, ptr %10) #10
  call void @llvm.lifetime.start.p0(i64 4, ptr %11) #10
  %13 = load ptr, ptr %5, align 8
  %14 = getelementptr inbounds nuw %struct.Jsonb, ptr %13, i32 0, i32 1
  %15 = call ptr @JsonbIteratorInit(ptr noundef %14)
  store ptr %15, ptr %9, align 8
  br label %16

16:                                               ; preds = %96, %42, %35, %4
  %17 = call i32 @JsonbIteratorNext(ptr noundef %9, ptr noundef %10, i1 noundef zeroext false)
  store i32 %17, ptr %11, align 4
  %18 = icmp ne i32 %17, 0
  br i1 %18, label %19, label %97

19:                                               ; preds = %16
  %20 = load i32, ptr %11, align 4
  %21 = icmp eq i32 %20, 1
  br i1 %21, label %22, label %36

22:                                               ; preds = %19
  %23 = load i32, ptr %6, align 4
  %24 = and i32 %23, 1
  %25 = icmp ne i32 %24, 0
  br i1 %25, label %26, label %35

26:                                               ; preds = %22
  %27 = load ptr, ptr %8, align 8
  %28 = load ptr, ptr %7, align 8
  %29 = getelementptr inbounds nuw %struct.JsonbValue, ptr %10, i32 0, i32 1
  %30 = getelementptr inbounds nuw %struct.anon.1, ptr %29, i32 0, i32 1
  %31 = load ptr, ptr %30, align 8
  %32 = getelementptr inbounds nuw %struct.JsonbValue, ptr %10, i32 0, i32 1
  %33 = getelementptr inbounds nuw %struct.anon.1, ptr %32, i32 0, i32 0
  %34 = load i32, ptr %33, align 8
  call void %27(ptr noundef %28, ptr noundef %31, i32 noundef %34)
  br label %35

35:                                               ; preds = %26, %22
  br label %16, !llvm.loop !28

36:                                               ; preds = %19
  %37 = load i32, ptr %11, align 4
  %38 = icmp eq i32 %37, 2
  br i1 %38, label %43, label %39

39:                                               ; preds = %36
  %40 = load i32, ptr %11, align 4
  %41 = icmp eq i32 %40, 3
  br i1 %41, label %43, label %42

42:                                               ; preds = %39
  br label %16, !llvm.loop !28

43:                                               ; preds = %39, %36
  br label %44

44:                                               ; preds = %43
  %45 = getelementptr inbounds nuw %struct.JsonbValue, ptr %10, i32 0, i32 0
  %46 = load i32, ptr %45, align 8
  switch i32 %46, label %95 [
    i32 1, label %47
    i32 2, label %61
    i32 3, label %79
  ]

47:                                               ; preds = %44
  %48 = load i32, ptr %6, align 4
  %49 = and i32 %48, 2
  %50 = icmp ne i32 %49, 0
  br i1 %50, label %51, label %60

51:                                               ; preds = %47
  %52 = load ptr, ptr %8, align 8
  %53 = load ptr, ptr %7, align 8
  %54 = getelementptr inbounds nuw %struct.JsonbValue, ptr %10, i32 0, i32 1
  %55 = getelementptr inbounds nuw %struct.anon.1, ptr %54, i32 0, i32 1
  %56 = load ptr, ptr %55, align 8
  %57 = getelementptr inbounds nuw %struct.JsonbValue, ptr %10, i32 0, i32 1
  %58 = getelementptr inbounds nuw %struct.anon.1, ptr %57, i32 0, i32 0
  %59 = load i32, ptr %58, align 8
  call void %52(ptr noundef %53, ptr noundef %56, i32 noundef %59)
  br label %60

60:                                               ; preds = %51, %47
  br label %96

61:                                               ; preds = %44
  %62 = load i32, ptr %6, align 4
  %63 = and i32 %62, 4
  %64 = icmp ne i32 %63, 0
  br i1 %64, label %65, label %78

65:                                               ; preds = %61
  call void @llvm.lifetime.start.p0(i64 8, ptr %12) #10
  %66 = getelementptr inbounds nuw %struct.JsonbValue, ptr %10, i32 0, i32 1
  %67 = load ptr, ptr %66, align 8
  %68 = call i64 @NumericGetDatum(ptr noundef %67)
  %69 = call i64 @DirectFunctionCall1Coll(ptr noundef @numeric_out, i32 noundef 0, i64 noundef %68)
  %70 = call ptr @DatumGetCString(i64 noundef %69)
  store ptr %70, ptr %12, align 8
  %71 = load ptr, ptr %8, align 8
  %72 = load ptr, ptr %7, align 8
  %73 = load ptr, ptr %12, align 8
  %74 = load ptr, ptr %12, align 8
  %75 = call i64 @strlen(ptr noundef %74) #13
  %76 = trunc i64 %75 to i32
  call void %71(ptr noundef %72, ptr noundef %73, i32 noundef %76)
  %77 = load ptr, ptr %12, align 8
  call void @pfree(ptr noundef %77)
  call void @llvm.lifetime.end.p0(i64 8, ptr %12) #10
  br label %78

78:                                               ; preds = %65, %61
  br label %96

79:                                               ; preds = %44
  %80 = load i32, ptr %6, align 4
  %81 = and i32 %80, 8
  %82 = icmp ne i32 %81, 0
  br i1 %82, label %83, label %94

83:                                               ; preds = %79
  %84 = getelementptr inbounds nuw %struct.JsonbValue, ptr %10, i32 0, i32 1
  %85 = load i8, ptr %84, align 8, !range !4, !noundef !5
  %86 = trunc i8 %85 to i1
  br i1 %86, label %87, label %90

87:                                               ; preds = %83
  %88 = load ptr, ptr %8, align 8
  %89 = load ptr, ptr %7, align 8
  call void %88(ptr noundef %89, ptr noundef @.str.50, i32 noundef 4)
  br label %93

90:                                               ; preds = %83
  %91 = load ptr, ptr %8, align 8
  %92 = load ptr, ptr %7, align 8
  call void %91(ptr noundef %92, ptr noundef @.str.51, i32 noundef 5)
  br label %93

93:                                               ; preds = %90, %87
  br label %94

94:                                               ; preds = %93, %79
  br label %96

95:                                               ; preds = %44
  br label %96

96:                                               ; preds = %95, %94, %78, %60
  br label %16, !llvm.loop !28

97:                                               ; preds = %16
  call void @llvm.lifetime.end.p0(i64 4, ptr %11) #10
  call void @llvm.lifetime.end.p0(i64 32, ptr %10) #10
  call void @llvm.lifetime.end.p0(i64 8, ptr %9) #10
  ret void
}