; Function Attrs: nounwind uwtable
define dso_local void @iterate_jsonb_values(ptr noundef %0, i32 noundef %1, ptr noundef %2, ptr noundef readonly captures(none) %3) local_unnamed_addr #0 {
  %5 = alloca ptr, align 8
  %6 = alloca %struct.JsonbValue, align 8
  call void @llvm.lifetime.start.p0(i64 8, ptr nonnull %5) #15
  call void @llvm.lifetime.start.p0(i64 32, ptr nonnull %6) #15
  %7 = getelementptr inbounds nuw i8, ptr %0, i64 4
  %8 = tail call ptr @JsonbIteratorInit(ptr noundef nonnull %7) #15
  store ptr %8, ptr %5, align 8
  %9 = and i32 %1, 1
  %.not24 = icmp eq i32 %9, 0
  %10 = getelementptr inbounds nuw i8, ptr %6, i64 8
  %11 = getelementptr inbounds nuw i8, ptr %6, i64 16
  %12 = and i32 %1, 8
  %.not21 = icmp eq i32 %12, 0
  %13 = and i32 %1, 4
  %.not22 = icmp eq i32 %13, 0
  %14 = and i32 %1, 2
  %.not23 = icmp eq i32 %14, 0
  br i1 %.not22, label %.split.us, label %.split

.split.us:                                        ; preds = %4, %.split.us.backedge
  %15 = call i32 @JsonbIteratorNext(ptr noundef nonnull %5, ptr noundef nonnull %6, i1 noundef zeroext false) #15
  switch i32 %15, label %20 [
    i32 0, label %.split26.us
    i32 1, label %16
  ]

16:                                               ; preds = %.split.us
  br i1 %.not24, label %.split.us.backedge, label %17

17:                                               ; preds = %16
  %18 = load ptr, ptr %11, align 8
  %19 = load i32, ptr %10, align 8
  call void %3(ptr noundef %2, ptr noundef %18, i32 noundef %19) #15
  br label %.split.us.backedge

20:                                               ; preds = %.split.us
  %21 = and i32 %15, -2
  %or.cond.us = icmp eq i32 %21, 2
  br i1 %or.cond.us, label %22, label %.split.us.backedge

22:                                               ; preds = %20
  %23 = load i32, ptr %6, align 8
  switch i32 %23, label %.split.us.backedge [
    i32 1, label %30
    i32 3, label %24
  ]

.split.us.backedge:                               ; preds = %22, %24, %28, %29, %30, %31, %16, %17, %20
  br label %.split.us, !llvm.loop !33

24:                                               ; preds = %22
  br i1 %.not21, label %.split.us.backedge, label %25

25:                                               ; preds = %24
  %26 = load i8, ptr %10, align 8, !range !4, !noundef !5
  %27 = trunc nuw i8 %26 to i1
  br i1 %27, label %29, label %28

28:                                               ; preds = %25
  call void %3(ptr noundef %2, ptr noundef nonnull @.str.51, i32 noundef 5) #15
  br label %.split.us.backedge

29:                                               ; preds = %25
  call void %3(ptr noundef %2, ptr noundef nonnull @.str.50, i32 noundef 4) #15
  br label %.split.us.backedge

30:                                               ; preds = %22
  br i1 %.not23, label %.split.us.backedge, label %31

31:                                               ; preds = %30
  %32 = load ptr, ptr %11, align 8
  %33 = load i32, ptr %10, align 8
  call void %3(ptr noundef %2, ptr noundef %32, i32 noundef %33) #15
  br label %.split.us.backedge

.split:                                           ; preds = %4
  br i1 %.not21, label %.split.split.us, label %.split.split

.split.split.us:                                  ; preds = %.split, %.split.split.us.backedge
  %34 = call i32 @JsonbIteratorNext(ptr noundef nonnull %5, ptr noundef nonnull %6, i1 noundef zeroext false) #15
  switch i32 %34, label %39 [
    i32 0, label %.split26.us
    i32 1, label %35
  ]

35:                                               ; preds = %.split.split.us
  br i1 %.not24, label %.split.split.us.backedge, label %36

36:                                               ; preds = %35
  %37 = load ptr, ptr %11, align 8
  %38 = load i32, ptr %10, align 8
  call void %3(ptr noundef %2, ptr noundef %37, i32 noundef %38) #15
  br label %.split.split.us.backedge

39:                                               ; preds = %.split.split.us
  %40 = and i32 %34, -2
  %or.cond.us27 = icmp eq i32 %40, 2
  br i1 %or.cond.us27, label %41, label %.split.split.us.backedge

41:                                               ; preds = %39
  %42 = load i32, ptr %6, align 8
  switch i32 %42, label %.split.split.us.backedge [
    i32 1, label %50
    i32 2, label %43
  ]

.split.split.us.backedge:                         ; preds = %41, %43, %50, %51, %35, %36, %39
  br label %.split.split.us, !llvm.loop !33

43:                                               ; preds = %41
  %44 = load ptr, ptr %10, align 8
  %45 = ptrtoint ptr %44 to i64
  %46 = call i64 @DirectFunctionCall1Coll(ptr noundef nonnull @numeric_out, i32 noundef 0, i64 noundef %45) #15
  %47 = inttoptr i64 %46 to ptr
  %48 = call i64 @strlen(ptr noundef nonnull dereferenceable(1) %47) #18
  %49 = trunc i64 %48 to i32
  call void %3(ptr noundef %2, ptr noundef nonnull %47, i32 noundef %49) #15
  call void @pfree(ptr noundef nonnull %47) #15
  br label %.split.split.us.backedge

50:                                               ; preds = %41
  br i1 %.not23, label %.split.split.us.backedge, label %51

51:                                               ; preds = %50
  %52 = load ptr, ptr %11, align 8
  %53 = load i32, ptr %10, align 8
  call void %3(ptr noundef %2, ptr noundef %52, i32 noundef %53) #15
  br label %.split.split.us.backedge

.split.split:                                     ; preds = %.split
  br i1 %.not24, label %.split.split.split.us, label %.split.split.split

.split.split.split.us:                            ; preds = %.split.split, %.split.split.split.us.backedge
  %54 = call i32 @JsonbIteratorNext(ptr noundef nonnull %5, ptr noundef nonnull %6, i1 noundef zeroext false) #15
  switch i32 %54, label %55 [
    i32 0, label %.split26.us
    i32 1, label %.split.split.split.us.backedge
  ]

55:                                               ; preds = %.split.split.split.us
  %56 = and i32 %54, -2
  %or.cond.us29 = icmp eq i32 %56, 2
  br i1 %or.cond.us29, label %57, label %.split.split.split.us.backedge

57:                                               ; preds = %55
  %58 = load i32, ptr %6, align 8
  switch i32 %58, label %.split.split.split.us.backedge [
    i32 1, label %71
    i32 2, label %64
    i32 3, label %59
  ]

.split.split.split.us.backedge:                   ; preds = %57, %62, %63, %64, %71, %72, %.split.split.split.us, %55
  br label %.split.split.split.us, !llvm.loop !33

59:                                               ; preds = %57
  %60 = load i8, ptr %10, align 8, !range !4, !noundef !5
  %61 = trunc nuw i8 %60 to i1
  br i1 %61, label %63, label %62

62:                                               ; preds = %59
  call void %3(ptr noundef %2, ptr noundef nonnull @.str.51, i32 noundef 5) #15
  br label %.split.split.split.us.backedge

63:                                               ; preds = %59
  call void %3(ptr noundef %2, ptr noundef nonnull @.str.50, i32 noundef 4) #15
  br label %.split.split.split.us.backedge

64:                                               ; preds = %57
  %65 = load ptr, ptr %10, align 8
  %66 = ptrtoint ptr %65 to i64
  %67 = call i64 @DirectFunctionCall1Coll(ptr noundef nonnull @numeric_out, i32 noundef 0, i64 noundef %66) #15
  %68 = inttoptr i64 %67 to ptr
  %69 = call i64 @strlen(ptr noundef nonnull dereferenceable(1) %68) #18
  %70 = trunc i64 %69 to i32
  call void %3(ptr noundef %2, ptr noundef nonnull %68, i32 noundef %70) #15
  call void @pfree(ptr noundef nonnull %68) #15
  br label %.split.split.split.us.backedge

71:                                               ; preds = %57
  br i1 %.not23, label %.split.split.split.us.backedge, label %72

72:                                               ; preds = %71
  %73 = load ptr, ptr %11, align 8
  %74 = load i32, ptr %10, align 8
  call void %3(ptr noundef %2, ptr noundef %73, i32 noundef %74) #15
  br label %.split.split.split.us.backedge

.split.split.split:                               ; preds = %.split.split, %.split.split.split.backedge
  %75 = call i32 @JsonbIteratorNext(ptr noundef nonnull %5, ptr noundef nonnull %6, i1 noundef zeroext false) #15
  switch i32 %75, label %79 [
    i32 0, label %.split26.us
    i32 1, label %76
  ]

76:                                               ; preds = %.split.split.split
  %77 = load ptr, ptr %11, align 8
  %78 = load i32, ptr %10, align 8
  call void %3(ptr noundef %2, ptr noundef %77, i32 noundef %78) #15
  br label %.split.split.split.backedge

79:                                               ; preds = %.split.split.split
  %80 = and i32 %75, -2
  %or.cond = icmp eq i32 %80, 2
  br i1 %or.cond, label %81, label %.split.split.split.backedge

81:                                               ; preds = %79
  %82 = load i32, ptr %6, align 8
  switch i32 %82, label %.split.split.split.backedge [
    i32 1, label %83
    i32 2, label %87
    i32 3, label %94
  ]

83:                                               ; preds = %81
  br i1 %.not23, label %.split.split.split.backedge, label %84

84:                                               ; preds = %83
  %85 = load ptr, ptr %11, align 8
  %86 = load i32, ptr %10, align 8
  call void %3(ptr noundef %2, ptr noundef %85, i32 noundef %86) #15
  br label %.split.split.split.backedge

.split.split.split.backedge:                      ; preds = %84, %83, %87, %97, %98, %81, %76, %79
  br label %.split.split.split, !llvm.loop !33

87:                                               ; preds = %81
  %88 = load ptr, ptr %10, align 8
  %89 = ptrtoint ptr %88 to i64
  %90 = call i64 @DirectFunctionCall1Coll(ptr noundef nonnull @numeric_out, i32 noundef 0, i64 noundef %89) #15
  %91 = inttoptr i64 %90 to ptr
  %92 = call i64 @strlen(ptr noundef nonnull dereferenceable(1) %91) #18
  %93 = trunc i64 %92 to i32
  call void %3(ptr noundef %2, ptr noundef nonnull %91, i32 noundef %93) #15
  call void @pfree(ptr noundef nonnull %91) #15
  br label %.split.split.split.backedge

94:                                               ; preds = %81
  %95 = load i8, ptr %10, align 8, !range !4, !noundef !5
  %96 = trunc nuw i8 %95 to i1
  br i1 %96, label %97, label %98

97:                                               ; preds = %94
  call void %3(ptr noundef %2, ptr noundef nonnull @.str.50, i32 noundef 4) #15
  br label %.split.split.split.backedge

98:                                               ; preds = %94
  call void %3(ptr noundef %2, ptr noundef nonnull @.str.51, i32 noundef 5) #15
  br label %.split.split.split.backedge

.split26.us:                                      ; preds = %.split.split.split, %.split.split.split.us, %.split.split.us, %.split.us
  call void @llvm.lifetime.end.p0(i64 32, ptr nonnull %6) #15
  call void @llvm.lifetime.end.p0(i64 8, ptr nonnull %5) #15
  ret void
}